target datalayout = "e-m:e-p270:32:32-p271:32:32-p272:64:64-i64:64-i128:128-f80:128-n8:16:32:64-S128"
target triple = "x86_64-pc-linux-gnu"

%struct.ic_env_s = type { ptr, ptr, ptr, ptr, ptr, ptr, ptr, ptr, ptr, ptr, ptr, ptr, ptr, i8, i8, i8, i8, i8, i8, i8, i8, i8, i8, i8, i8, i8, i64 }

@rpenv = internal global ptr null, align 8

; Function Attrs: nounwind uwtable
define internal ptr @ic_get_env() #0 {
  %1 = load ptr, ptr @rpenv, align 8, !tbaa !65
  %2 = icmp eq ptr %1, null
  br i1 %2, label %3, label %10

3:                                                ; preds = %0
  %4 = call ptr @ic_env_create(ptr noundef null, ptr noundef null, ptr noundef null)
  store ptr %4, ptr @rpenv, align 8, !tbaa !65
  %5 = load ptr, ptr @rpenv, align 8, !tbaa !65
  %6 = icmp ne ptr %5, null
  br i1 %6, label %7, label %9

7:                                                ; preds = %3
  %8 = call i32 @atexit(ptr noundef @ic_atexit) #13
  br label %9

9:                                                ; preds = %7, %3
  br label %10

10:                                               ; preds = %9, %0
  %11 = load ptr, ptr @rpenv, align 8, !tbaa !65
  ret ptr %11
}

; Function Attrs: nounwind uwtable
define dso_local zeroext i1 @ic_enable_auto_tab(i1 noundef zeroext %0) #0 {
  %2 = alloca i1, align 1
  %3 = alloca i8, align 1
  %4 = alloca ptr, align 8
  %5 = alloca i32, align 4
  %6 = alloca i8, align 1
  %7 = zext i1 %0 to i8
  store i8 %7, ptr %3, align 1, !tbaa !132
  call void @llvm.lifetime.start.p0(i64 8, ptr %4) #13
  %8 = call ptr @ic_get_env()
  store ptr %8, ptr %4, align 8, !tbaa !65
  %9 = load ptr, ptr %4, align 8, !tbaa !65
  %10 = icmp eq ptr %9, null
  br i1 %10, label %11, label %12

11:                                               ; preds = %1
  store i1 false, ptr %2, align 1
  store i32 1, ptr %5, align 4
  br label %25

12:                                               ; preds = %1
  call void @llvm.lifetime.start.p0(i64 1, ptr %6) #13
  %13 = load ptr, ptr %4, align 8, !tbaa !65
  %14 = getelementptr inbounds nuw %struct.ic_env_s, ptr %13, i32 0, i32 18
  %15 = load i8, ptr %14, align 1, !tbaa !161, !range !124, !noundef !125
  %16 = trunc i8 %15 to i1
  %17 = zext i1 %16 to i8
  store i8 %17, ptr %6, align 1, !tbaa !132
  %18 = load i8, ptr %3, align 1, !tbaa !132, !range !124, !noundef !125
  %19 = trunc i8 %18 to i1
  %20 = load ptr, ptr %4, align 8, !tbaa !65
  %21 = getelementptr inbounds nuw %struct.ic_env_s, ptr %20, i32 0, i32 18
  %22 = zext i1 %19 to i8
  store i8 %22, ptr %21, align 1, !tbaa !161
  %23 = load i8, ptr %6, align 1, !tbaa !132, !range !124, !noundef !125
  %24 = trunc i8 %23 to i1
  store i1 %24, ptr %2, align 1
  store i32 1, ptr %5, align 4
  call void @llvm.lifetime.end.p0(i64 1, ptr %6) #13
  br label %25

25:                                               ; preds = %12, %11
  call void @llvm.lifetime.end.p0(i64 8, ptr %4) #13
  %26 = load i1, ptr %2, align 1
  ret i1 %26
}